target datalayout = "e-m:e-p270:32:32-p271:32:32-p272:64:64-i64:64-i128:128-f80:128-n8:16:32:64-S128"
target triple = "x86_64-pc-linux-gnu"

%"class.glslang::TPoolAllocator" = type { i64, i64, i64, i64, i64, ptr, ptr, %"class.std::vector", i32, i64 }
%"class.std::vector" = type { %"struct.std::_Vector_base" }
%"struct.std::_Vector_base" = type { %"struct.std::_Vector_base<glslang::TPoolAllocator::tAllocState, std::allocator<glslang::TPoolAllocator::tAllocState>>::_Vector_impl" }
%"struct.std::_Vector_base<glslang::TPoolAllocator::tAllocState, std::allocator<glslang::TPoolAllocator::tAllocState>>::_Vector_impl" = type { %"struct.std::_Vector_base<glslang::TPoolAllocator::tAllocState, std::allocator<glslang::TPoolAllocator::tAllocState>>::_Vector_impl_data" }
%"struct.std::_Vector_base<glslang::TPoolAllocator::tAllocState, std::allocator<glslang::TPoolAllocator::tAllocState>>::_Vector_impl_data" = type { ptr, ptr, ptr }

; Function Attrs: mustprogress nounwind uwtable
define linkonce_odr void @_ZNSt15__new_allocatorIN7glslang14TPoolAllocator11tAllocStateEEC2Ev(ptr noundef nonnull align 1 dereferenceable(1) %0) unnamed_addr #0 comdat align 2 {
  %2 = alloca ptr, align 8
  store ptr %0, ptr %2, align 8
  ret void
}

; Function Attrs: mustprogress nounwind uwtable
define linkonce_odr void @_ZNSt12_Vector_baseIN7glslang14TPoolAllocator11tAllocStateESaIS2_EE17_Vector_impl_dataC2Ev(ptr noundef nonnull align 8 dereferenceable(24) %0) unnamed_addr #0 comdat align 2 {
  %2 = alloca ptr, align 8
  store ptr %0, ptr %2, align 8
  %3 = load ptr, ptr %2, align 8
  %4 = getelementptr inbounds %"struct.std::_Vector_base<glslang::TPoolAllocator::tAllocState, std::allocator<glslang::TPoolAllocator::tAllocState>>::_Vector_impl_data", ptr %3, i32 0, i32 0
  store ptr null, ptr %4, align 8
  %5 = getelementptr inbounds %"struct.std::_Vector_base<glslang::TPoolAllocator::tAllocState, std::allocator<glslang::TPoolAllocator::tAllocState>>::_Vector_impl_data", ptr %3, i32 0, i32 1
  store ptr null, ptr %5, align 8
  %6 = getelementptr inbounds %"struct.std::_Vector_base<glslang::TPoolAllocator::tAllocState, std::allocator<glslang::TPoolAllocator::tAllocState>>::_Vector_impl_data", ptr %3, i32 0, i32 2
  store ptr null, ptr %6, align 8
  ret void
}

; Function Attrs: mustprogress nounwind uwtable
define linkonce_odr void @_ZNSaIN7glslang14TPoolAllocator11tAllocStateEEC2Ev(ptr noundef nonnull align 1 dereferenceable(1) %0) unnamed_addr #0 comdat align 2 {
  %2 = alloca ptr, align 8
  store ptr %0, ptr %2, align 8
  %3 = load ptr, ptr %2, align 8
  call void @_ZNSt15__new_allocatorIN7glslang14TPoolAllocator11tAllocStateEEC2Ev(ptr noundef nonnull align 1 dereferenceable(1) %3) #4
  ret void
}

; Function Attrs: mustprogress nounwind uwtable
define linkonce_odr void @_ZNSt12_Vector_baseIN7glslang14TPoolAllocator11tAllocStateESaIS2_EE12_Vector_implC2Ev(ptr noundef nonnull align 8 dereferenceable(24) %0) unnamed_addr #0 comdat align 2 {
  %2 = alloca ptr, align 8
  store ptr %0, ptr %2, align 8
  %3 = load ptr, ptr %2, align 8
  call void @_ZNSaIN7glslang14TPoolAllocator11tAllocStateEEC2Ev(ptr noundef nonnull align 1 dereferenceable(1) %3) #4
  call void @_ZNSt12_Vector_baseIN7glslang14TPoolAllocator11tAllocStateESaIS2_EE17_Vector_impl_dataC2Ev(ptr noundef nonnull align 8 dereferenceable(24) %3) #4
  ret void
}

; Function Attrs: mustprogress nounwind uwtable
define linkonce_odr void @_ZNSt12_Vector_baseIN7glslang14TPoolAllocator11tAllocStateESaIS2_EEC2Ev(ptr noundef nonnull align 8 dereferenceable(24) %0) unnamed_addr #0 comdat align 2 {
  %2 = alloca ptr, align 8
  store ptr %0, ptr %2, align 8
  %3 = load ptr, ptr %2, align 8
  %4 = getelementptr inbounds %"struct.std::_Vector_base", ptr %3, i32 0, i32 0
  call void @_ZNSt12_Vector_baseIN7glslang14TPoolAllocator11tAllocStateESaIS2_EE12_Vector_implC2Ev(ptr noundef nonnull align 8 dereferenceable(24) %4) #4
  ret void
}

; Function Attrs: mustprogress nounwind uwtable
define linkonce_odr void @_ZNSt6vectorIN7glslang14TPoolAllocator11tAllocStateESaIS2_EEC2Ev(ptr noundef nonnull align 8 dereferenceable(24) %0) unnamed_addr #0 comdat align 2 {
  %2 = alloca ptr, align 8
  store ptr %0, ptr %2, align 8
  %3 = load ptr, ptr %2, align 8
  call void @_ZNSt12_Vector_baseIN7glslang14TPoolAllocator11tAllocStateESaIS2_EEC2Ev(ptr noundef nonnull align 8 dereferenceable(24) %3) #4
  ret void
}

; Function Attrs: mustprogress nounwind uwtable
define void @_ZN7glslang14TPoolAllocatorC2Eii(ptr noundef nonnull align 8 dereferenceable(96) %0, i32 noundef %1, i32 noundef %2) unnamed_addr #0 align 2 {
  %4 = alloca ptr, align 8
  %5 = alloca i32, align 4
  %6 = alloca i32, align 4
  %7 = alloca i64, align 8
  %8 = alloca i64, align 8
  store ptr %0, ptr %4, align 8
  store i32 %1, ptr %5, align 4
  store i32 %2, ptr %6, align 4
  %9 = load ptr, ptr %4, align 8
  %10 = getelementptr inbounds %"class.glslang::TPoolAllocator", ptr %9, i32 0, i32 0
  %11 = load i32, ptr %5, align 4
  %12 = sext i32 %11 to i64
  store i64 %12, ptr %10, align 8
  %13 = getelementptr inbounds %"class.glslang::TPoolAllocator", ptr %9, i32 0, i32 1
  %14 = load i32, ptr %6, align 4
  %15 = sext i32 %14 to i64
  store i64 %15, ptr %13, align 8
  %16 = getelementptr inbounds %"class.glslang::TPoolAllocator", ptr %9, i32 0, i32 5
  store ptr null, ptr %16, align 8
  %17 = getelementptr inbounds %"class.glslang::TPoolAllocator", ptr %9, i32 0, i32 6
  store ptr null, ptr %17, align 8
  %18 = getelementptr inbounds %"class.glslang::TPoolAllocator", ptr %9, i32 0, i32 7
  call void @_ZNSt6vectorIN7glslang14TPoolAllocator11tAllocStateESaIS2_EEC2Ev(ptr noundef nonnull align 8 dereferenceable(24) %18) #4
  %19 = getelementptr inbounds %"class.glslang::TPoolAllocator", ptr %9, i32 0, i32 8
  store i32 0, ptr %19, align 8
  %20 = getelementptr inbounds %"class.glslang::TPoolAllocator", ptr %9, i32 0, i32 0
  %21 = load i64, ptr %20, align 8
  %22 = icmp ult i64 %21, 4096
  br i1 %22, label %23, label %25

23:                                               ; preds = %3
  %24 = getelementptr inbounds %"class.glslang::TPoolAllocator", ptr %9, i32 0, i32 0
  store i64 4096, ptr %24, align 8
  br label %25

25:                                               ; preds = %23, %3
  %26 = getelementptr inbounds %"class.glslang::TPoolAllocator", ptr %9, i32 0, i32 0
  %27 = load i64, ptr %26, align 8
  %28 = getelementptr inbounds %"class.glslang::TPoolAllocator", ptr %9, i32 0, i32 4
  store i64 %27, ptr %28, align 8
  store i64 8, ptr %7, align 8
  %29 = load i64, ptr %7, align 8
  %30 = sub i64 %29, 1
  %31 = xor i64 %30, -1
  %32 = getelementptr inbounds %"class.glslang::TPoolAllocator", ptr %9, i32 0, i32 1
  %33 = load i64, ptr %32, align 8
  %34 = and i64 %33, %31
  store i64 %34, ptr %32, align 8
  %35 = getelementptr inbounds %"class.glslang::TPoolAllocator", ptr %9, i32 0, i32 1
  %36 = load i64, ptr %35, align 8
  %37 = load i64, ptr %7, align 8
  %38 = icmp ult i64 %36, %37
  br i1 %38, label %39, label %42

39:                                               ; preds = %25
  %40 = load i64, ptr %7, align 8
  %41 = getelementptr inbounds %"class.glslang::TPoolAllocator", ptr %9, i32 0, i32 1
  store i64 %40, ptr %41, align 8
  br label %42

42:                                               ; preds = %39, %25
  store i64 1, ptr %8, align 8
  br label %43

43:                                               ; preds = %48, %42
  %44 = load i64, ptr %8, align 8
  %45 = getelementptr inbounds %"class.glslang::TPoolAllocator", ptr %9, i32 0, i32 1
  %46 = load i64, ptr %45, align 8
  %47 = icmp ult i64 %44, %46
  br i1 %47, label %48, label %51

48:                                               ; preds = %43
  %49 = load i64, ptr %8, align 8
  %50 = shl i64 %49, 1
  store i64 %50, ptr %8, align 8
  br label %43, !llvm.loop !5

51:                                               ; preds = %43
  %52 = load i64, ptr %8, align 8
  %53 = getelementptr inbounds %"class.glslang::TPoolAllocator", ptr %9, i32 0, i32 1
  store i64 %52, ptr %53, align 8
  %54 = load i64, ptr %8, align 8
  %55 = sub i64 %54, 1
  %56 = getelementptr inbounds %"class.glslang::TPoolAllocator", ptr %9, i32 0, i32 2
  store i64 %55, ptr %56, align 8
  %57 = load i64, ptr %7, align 8
  %58 = getelementptr inbounds %"class.glslang::TPoolAllocator", ptr %9, i32 0, i32 3
  store i64 %57, ptr %58, align 8
  %59 = getelementptr inbounds %"class.glslang::TPoolAllocator", ptr %9, i32 0, i32 3
  %60 = load i64, ptr %59, align 8
  %61 = icmp ult i64 %60, 16
  br i1 %61, label %62, label %71

62:                                               ; preds = %51
  %63 = getelementptr inbounds %"class.glslang::TPoolAllocator", ptr %9, i32 0, i32 2
  %64 = load i64, ptr %63, align 8
  %65 = add i64 16, %64
  %66 = getelementptr inbounds %"class.glslang::TPoolAllocator", ptr %9, i32 0, i32 2
  %67 = load i64, ptr %66, align 8
  %68 = xor i64 %67, -1
  %69 = and i64 %65, %68
  %70 = getelementptr inbounds %"class.glslang::TPoolAllocator", ptr %9, i32 0, i32 3
  store i64 %69, ptr %70, align 8
  br label %71

71:                                               ; preds = %62, %51
  call void @_ZN7glslang14TPoolAllocator4pushEv(ptr noundef nonnull align 8 dereferenceable(96) %9)
  ret void
}