; Function Attrs: mustprogress nounwind uwtable
define void @_ZN7glslang14TPoolAllocatorC2Eii(ptr nocapture noundef nonnull align 8 dereferenceable(96) %0, i32 noundef %1, i32 noundef %2) unnamed_addr #0 align 2 {
  %4 = sext i32 %1 to i64
  store i64 %4, ptr %0, align 8
  %5 = getelementptr inbounds i8, ptr %0, i64 40
  %6 = icmp ult i32 %1, 4096
  tail call void @llvm.memset.p0.i64(ptr noundef nonnull align 8 dereferenceable(44) %5, i8 0, i64 44, i1 false)
  br i1 %6, label %7, label %8

7:                                                ; preds = %3
  store i64 4096, ptr %0, align 8
  br label %8

8:                                                ; preds = %7, %3
  %9 = phi i64 [ 4096, %7 ], [ %4, %3 ]
  %10 = getelementptr inbounds i8, ptr %0, i64 32
  store i64 %9, ptr %10, align 8
  %11 = and i32 %2, -8
  %12 = icmp eq i32 %11, 0
  %narrow = select i1 %12, i32 8, i32 %11
  %spec.select = sext i32 %narrow to i64
  br label %13

13:                                               ; preds = %13, %8
  %.0 = phi i64 [ 1, %8 ], [ %15, %13 ]
  %14 = icmp ult i64 %.0, %spec.select
  %15 = shl i64 %.0, 1
  br i1 %14, label %13, label %16, !llvm.loop !5

16:                                               ; preds = %13
  %17 = getelementptr inbounds i8, ptr %0, i64 8
  store i64 %.0, ptr %17, align 8
  %18 = add i64 %.0, -1
  %19 = getelementptr inbounds i8, ptr %0, i64 16
  store i64 %18, ptr %19, align 8
  %20 = getelementptr inbounds i8, ptr %0, i64 24
  %21 = add i64 %.0, 15
  %22 = sub i64 0, %.0
  %23 = and i64 %21, %22
  store i64 %23, ptr %20, align 8
  tail call void @_ZN7glslang14TPoolAllocator4pushEv(ptr noundef nonnull align 8 dereferenceable(96) %0)
  ret void
}